#include <math.h>
#include <stdio.h>
#include <stdlib.h>
#include <string.h>

int main()
{
	char M[3][20];
	scanf("%s", M[0]);
	if(M[0][0]=='i')
		printf("iloveearth");
	else if(M[0][0]=='s')
		printf("sdjkhfksdahfjksdh111111lhfjkasdhkfhkasdhfklahsdjkfhsdk");
	else printf("programmingiscool");

	return 0;
}