; ModuleID = '7/114.c'
source_filename = "7/114.c"
target datalayout = "e-m:e-p270:32:32-p271:32:32-p272:64:64-i64:64-f80:128-n8:16:32:64-S128"
target triple = "x86_64-pc-linux-gnu"

@.str = private unnamed_addr constant [3 x i8] c"%s\00", align 1
@.str.1 = private unnamed_addr constant [11 x i8] c"iloveearth\00", align 1
@.str.2 = private unnamed_addr constant [55 x i8] c"sdjkhfksdahfjksdh111111lhfjkasdhkfhkasdhfklahsdjkfhsdk\00", align 1
@.str.3 = private unnamed_addr constant [18 x i8] c"programmingiscool\00", align 1

; Function Attrs: noinline nounwind uwtable
define dso_local i32 @main() #0 {
  %1 = alloca i32, align 4
  %2 = alloca [3 x [20 x i8]], align 16
  store i32 0, i32* %1, align 4
  %3 = getelementptr inbounds [3 x [20 x i8]], [3 x [20 x i8]]* %2, i64 0, i64 0
  %4 = getelementptr inbounds [20 x i8], [20 x i8]* %3, i64 0, i64 0
  %5 = call i32 (i8*, ...) @__isoc99_scanf(i8* getelementptr inbounds ([3 x i8], [3 x i8]* @.str, i64 0, i64 0), i8* %4)
  %6 = getelementptr inbounds [3 x [20 x i8]], [3 x [20 x i8]]* %2, i64 0, i64 0
  %7 = getelementptr inbounds [20 x i8], [20 x i8]* %6, i64 0, i64 0
  %8 = load i8, i8* %7, align 16
  %9 = sext i8 %8 to i32
  %10 = icmp eq i32 %9, 105
  br i1 %10, label %11, label %13

11:                                               ; preds = %0
  %12 = call i32 (i8*, ...) @printf(i8* getelementptr inbounds ([11 x i8], [11 x i8]* @.str.1, i64 0, i64 0))
  br label %24

13:                                               ; preds = %0
  %14 = getelementptr inbounds [3 x [20 x i8]], [3 x [20 x i8]]* %2, i64 0, i64 0
  %15 = getelementptr inbounds [20 x i8], [20 x i8]* %14, i64 0, i64 0
  %16 = load i8, i8* %15, align 16
  %17 = sext i8 %16 to i32
  %18 = icmp eq i32 %17, 115
  br i1 %18, label %19, label %21

19:                                               ; preds = %13
  %20 = call i32 (i8*, ...) @printf(i8* getelementptr inbounds ([55 x i8], [55 x i8]* @.str.2, i64 0, i64 0))
  br label %23

21:                                               ; preds = %13
  %22 = call i32 (i8*, ...) @printf(i8* getelementptr inbounds ([18 x i8], [18 x i8]* @.str.3, i64 0, i64 0))
  br label %23

23:                                               ; preds = %21, %19
  br label %24

24:                                               ; preds = %23, %11
  ret i32 0
}

declare dso_local i32 @__isoc99_scanf(i8*, ...) #1

declare dso_local i32 @printf(i8*, ...) #1


!llvm.module.flags = !{!0}
!llvm.ident = !{!1}

!0 = !{i32 1, !"wchar_size", i32 4}
!1 = !{!"clang version 10.0.0-4ubuntu1 "}
