; ModuleID = 'source-C-CXX/6/114.c'
source_filename = "source-C-CXX/6/114.c"
target datalayout = "e-m:e-p270:32:32-p271:32:32-p272:64:64-i64:64-f80:128-n8:16:32:64-S128"
target triple = "x86_64-pc-linux-gnu"

@.str = private unnamed_addr constant [3 x i8] c"%s\00", align 1
@.str.1 = private unnamed_addr constant [11 x i8] c"iloveearth\00", align 1
@.str.2 = private unnamed_addr constant [55 x i8] c"sdjkhfksdahfjksdh111111lhfjkasdhkfhkasdhfklahsdjkfhsdk\00", align 1
@.str.3 = private unnamed_addr constant [18 x i8] c"programmingiscool\00", align 1

; Function Attrs: nofree nounwind sspstrong uwtable
define dso_local i32 @main() local_unnamed_addr #0 {
  %1 = alloca [3 x [20 x i8]], align 16
  %2 = getelementptr inbounds [3 x [20 x i8]], [3 x [20 x i8]]* %1, i64 0, i64 0, i64 0
  call void @llvm.lifetime.start.p0i8(i64 60, i8* nonnull %2) #3
  %3 = call i32 (i8*, ...) @__isoc99_scanf(i8* getelementptr inbounds ([3 x i8], [3 x i8]* @.str, i64 0, i64 0), i8* nonnull %2)
  %4 = load i8, i8* %2, align 16, !tbaa !5
  %5 = icmp eq i8 %4, 115
  %6 = select i1 %5, i8* getelementptr inbounds ([55 x i8], [55 x i8]* @.str.2, i64 0, i64 0), i8* getelementptr inbounds ([18 x i8], [18 x i8]* @.str.3, i64 0, i64 0)
  %7 = icmp eq i8 %4, 105
  %8 = select i1 %7, i8* getelementptr inbounds ([11 x i8], [11 x i8]* @.str.1, i64 0, i64 0), i8* %6
  %9 = call i32 (i8*, ...) @printf(i8* nonnull dereferenceable(1) %8)
  call void @llvm.lifetime.end.p0i8(i64 60, i8* nonnull %2) #3
  ret i32 0
}

; Function Attrs: argmemonly mustprogress nofree nosync nounwind willreturn
declare void @llvm.lifetime.start.p0i8(i64 immarg, i8* nocapture) #1

; Function Attrs: nofree nounwind
declare noundef i32 @__isoc99_scanf(i8* nocapture noundef readonly, ...) local_unnamed_addr #2

; Function Attrs: nofree nounwind
declare noundef i32 @printf(i8* nocapture noundef readonly, ...) local_unnamed_addr #2

; Function Attrs: argmemonly mustprogress nofree nosync nounwind willreturn
declare void @llvm.lifetime.end.p0i8(i64 immarg, i8* nocapture) #1


!llvm.module.flags = !{!0, !1, !2, !3}
!llvm.ident = !{!4}

!0 = !{i32 1, !"wchar_size", i32 4}
!1 = !{i32 7, !"PIC Level", i32 2}
!2 = !{i32 7, !"PIE Level", i32 2}
!3 = !{i32 7, !"uwtable", i32 1}
!4 = !{!"clang version 13.0.0"}
!5 = !{!6, !6, i64 0}
!6 = !{!"omnipotent char", !7, i64 0}
!7 = !{!"Simple C/C++ TBAA"}
